target datalayout = "e-m:e-p270:32:32-p271:32:32-p272:64:64-i64:64-i128:128-f80:128-n8:16:32:64-S128"
target triple = "x86_64-unknown-linux-gnu"

%"class.boost::detail::shared_count" = type { ptr }
%"struct.std::_Rb_tree_header" = type { %"struct.std::_Rb_tree_node_base", i64 }
%"struct.std::_Rb_tree_node_base" = type { i32, ptr, ptr, ptr }
%"class.QuantLib::Currency" = type { %"class.boost::shared_ptr.11" }
%"class.boost::shared_ptr.11" = type { ptr, %"class.boost::detail::shared_count" }
%"class.std::__cxx11::basic_string" = type { %"struct.std::__cxx11::basic_string<char>::_Alloc_hider", i64, %union.anon }
%"struct.std::__cxx11::basic_string<char>::_Alloc_hider" = type { ptr }
%union.anon = type { i64, [8 x i8] }
%"struct.QuantLib::Currency::Data" = type { %"class.std::__cxx11::basic_string", %"class.std::__cxx11::basic_string", i32, %"class.std::__cxx11::basic_string", %"class.std::__cxx11::basic_string", i32, %"class.QuantLib::Rounding", %"class.QuantLib::Currency", %"class.std::__cxx11::basic_string", %"class.std::set.41" }
%"class.QuantLib::Rounding" = type { i32, i32, i32 }
%"class.std::set.41" = type { %"class.std::_Rb_tree.42" }
%"class.std::_Rb_tree.42" = type { %"struct.std::_Rb_tree<std::__cxx11::basic_string<char>, std::__cxx11::basic_string<char>, std::_Identity<std::__cxx11::basic_string<char>>, std::less<std::__cxx11::basic_string<char>>>::_Rb_tree_impl" }
%"struct.std::_Rb_tree<std::__cxx11::basic_string<char>, std::__cxx11::basic_string<char>, std::_Identity<std::__cxx11::basic_string<char>>, std::less<std::__cxx11::basic_string<char>>>::_Rb_tree_impl" = type { [8 x i8], %"struct.std::_Rb_tree_header" }

@.str.8 = private unnamed_addr constant [8 x i8] c"px != 0\00", align 1
@__PRETTY_FUNCTION__._ZNK5boost10shared_ptrIN8QuantLib8Currency4DataEEptEv = private unnamed_addr constant [145 x i8] c"typename boost::detail::sp_member_access<T>::type boost::shared_ptr<QuantLib::Currency::Data>::operator->() const [T = QuantLib::Currency::Data]\00", align 1
@.str.9 = private unnamed_addr constant [102 x i8] c"generated/home/dtcxzyw/WorkSpace/SDK/vcpkg/installed/x64-linux/include/boost/smart_ptr/shared_ptr.hpp\00", align 1

; Function Attrs: mustprogress uwtable
define linkonce_odr noundef ptr @_ZNK5boost10shared_ptrIN8QuantLib8Currency4DataEEptEv(ptr noundef nonnull align 8 dereferenceable(16) %this) #4 comdat align 2 {
entry:
  %this.addr = alloca ptr, align 8
  store ptr %this, ptr %this.addr, align 8, !tbaa !3
  %this1 = load ptr, ptr %this.addr, align 8
  %px = getelementptr inbounds nuw %"class.boost::shared_ptr.11", ptr %this1, i32 0, i32 0
  %0 = load ptr, ptr %px, align 8, !tbaa !72
  %cmp = icmp ne ptr %0, null
  %lnot = xor i1 %cmp, true
  %lnot2 = xor i1 %lnot, true
  %conv = zext i1 %lnot2 to i64
  %expval = call i64 @llvm.expect.i64(i64 %conv, i64 1)
  %tobool = icmp ne i64 %expval, 0
  br i1 %tobool, label %cond.true, label %cond.false

cond.true:                                        ; preds = %entry
  br label %cond.end

cond.false:                                       ; preds = %entry
  call void @_ZN5boost16assertion_failedEPKcS1_S1_l(ptr noundef @.str.8, ptr noundef @__PRETTY_FUNCTION__._ZNK5boost10shared_ptrIN8QuantLib8Currency4DataEEptEv, ptr noundef @.str.9, i64 noundef 784)
  br label %cond.end

cond.end:                                         ; preds = %cond.false, %cond.true
  %px3 = getelementptr inbounds nuw %"class.boost::shared_ptr.11", ptr %this1, i32 0, i32 0
  %1 = load ptr, ptr %px3, align 8, !tbaa !72
  ret ptr %1
}

; Function Attrs: inlinehint mustprogress nounwind uwtable
define linkonce_odr noundef nonnull align 4 dereferenceable(4) ptr @_ZSt3maxIiERKT_S2_S2_(ptr noundef nonnull align 4 dereferenceable(4) %__a, ptr noundef nonnull align 4 dereferenceable(4) %__b) #5 comdat {
entry:
  %retval = alloca ptr, align 8
  %__a.addr = alloca ptr, align 8
  %__b.addr = alloca ptr, align 8
  store ptr %__a, ptr %__a.addr, align 8, !tbaa !3
  store ptr %__b, ptr %__b.addr, align 8, !tbaa !3
  %0 = load ptr, ptr %__a.addr, align 8, !tbaa !3
  %1 = load i32, ptr %0, align 4, !tbaa !9
  %2 = load ptr, ptr %__b.addr, align 8, !tbaa !3
  %3 = load i32, ptr %2, align 4, !tbaa !9
  %cmp = icmp slt i32 %1, %3
  br i1 %cmp, label %if.then, label %if.end

if.then:                                          ; preds = %entry
  %4 = load ptr, ptr %__b.addr, align 8, !tbaa !3
  store ptr %4, ptr %retval, align 8
  br label %return

if.end:                                           ; preds = %entry
  %5 = load ptr, ptr %__a.addr, align 8, !tbaa !3
  store ptr %5, ptr %retval, align 8
  br label %return

return:                                           ; preds = %if.end, %if.then
  %6 = load ptr, ptr %retval, align 8
  ret ptr %6
}

; Function Attrs: inlinehint mustprogress nounwind uwtable
define linkonce_odr noundef nonnull align 4 dereferenceable(4) ptr @_ZSt3minIiERKT_S2_S2_(ptr noundef nonnull align 4 dereferenceable(4) %__a, ptr noundef nonnull align 4 dereferenceable(4) %__b) #5 comdat {
entry:
  %retval = alloca ptr, align 8
  %__a.addr = alloca ptr, align 8
  %__b.addr = alloca ptr, align 8
  store ptr %__a, ptr %__a.addr, align 8, !tbaa !3
  store ptr %__b, ptr %__b.addr, align 8, !tbaa !3
  %0 = load ptr, ptr %__b.addr, align 8, !tbaa !3
  %1 = load i32, ptr %0, align 4, !tbaa !9
  %2 = load ptr, ptr %__a.addr, align 8, !tbaa !3
  %3 = load i32, ptr %2, align 4, !tbaa !9
  %cmp = icmp slt i32 %1, %3
  br i1 %cmp, label %if.then, label %if.end

if.then:                                          ; preds = %entry
  %4 = load ptr, ptr %__b.addr, align 8, !tbaa !3
  store ptr %4, ptr %retval, align 8
  br label %return

if.end:                                           ; preds = %entry
  %5 = load ptr, ptr %__a.addr, align 8, !tbaa !3
  store ptr %5, ptr %retval, align 8
  br label %return

return:                                           ; preds = %if.end, %if.then
  %6 = load ptr, ptr %retval, align 8
  ret ptr %6
}

; Function Attrs: inlinehint mustprogress uwtable
define linkonce_odr noundef i32 @_ZNK8QuantLib8Currency11numericCodeEv(ptr noundef nonnull align 8 dereferenceable(16) %this) #6 comdat align 2 {
entry:
  %this.addr = alloca ptr, align 8
  store ptr %this, ptr %this.addr, align 8, !tbaa !3
  %this1 = load ptr, ptr %this.addr, align 8
  call void @_ZNK8QuantLib8Currency13checkNonEmptyEv(ptr noundef nonnull align 8 dereferenceable(16) %this1)
  %data_ = getelementptr inbounds nuw %"class.QuantLib::Currency", ptr %this1, i32 0, i32 0
  %call = call noundef ptr @_ZNK5boost10shared_ptrIN8QuantLib8Currency4DataEEptEv(ptr noundef nonnull align 8 dereferenceable(16) %data_)
  %numeric = getelementptr inbounds nuw %"struct.QuantLib::Currency::Data", ptr %call, i32 0, i32 2
  %0 = load i32, ptr %numeric, align 8, !tbaa !35
  ret i32 %0
}

; Function Attrs: mustprogress uwtable
define noundef i64 @_ZNK8QuantLib19ExchangeRateManager4hashERKNS_8CurrencyES3_(ptr noundef nonnull align 8 dereferenceable(48) %this, ptr noundef nonnull align 8 dereferenceable(16) %c1, ptr noundef nonnull align 8 dereferenceable(16) %c2) #4 align 2 {
entry:
  %this.addr = alloca ptr, align 8
  %c1.addr = alloca ptr, align 8
  %c2.addr = alloca ptr, align 8
  %ref.tmp = alloca i32, align 4
  %ref.tmp2 = alloca i32, align 4
  %ref.tmp5 = alloca i32, align 4
  %ref.tmp7 = alloca i32, align 4
  store ptr %this, ptr %this.addr, align 8, !tbaa !3
  store ptr %c1, ptr %c1.addr, align 8, !tbaa !3
  store ptr %c2, ptr %c2.addr, align 8, !tbaa !3
  call void @llvm.lifetime.start.p0(i64 4, ptr %ref.tmp) #11
  %0 = load ptr, ptr %c1.addr, align 8, !tbaa !3
  %call = call noundef i32 @_ZNK8QuantLib8Currency11numericCodeEv(ptr noundef nonnull align 8 dereferenceable(16) %0)
  store i32 %call, ptr %ref.tmp, align 4, !tbaa !9
  call void @llvm.lifetime.start.p0(i64 4, ptr %ref.tmp2) #11
  %1 = load ptr, ptr %c2.addr, align 8, !tbaa !3
  %call3 = call noundef i32 @_ZNK8QuantLib8Currency11numericCodeEv(ptr noundef nonnull align 8 dereferenceable(16) %1)
  store i32 %call3, ptr %ref.tmp2, align 4, !tbaa !9
  %call4 = call noundef nonnull align 4 dereferenceable(4) ptr @_ZSt3minIiERKT_S2_S2_(ptr noundef nonnull align 4 dereferenceable(4) %ref.tmp, ptr noundef nonnull align 4 dereferenceable(4) %ref.tmp2)
  %2 = load i32, ptr %call4, align 4, !tbaa !9
  %conv = sext i32 %2 to i64
  %mul = mul nsw i64 %conv, 1000
  call void @llvm.lifetime.start.p0(i64 4, ptr %ref.tmp5) #11
  %3 = load ptr, ptr %c1.addr, align 8, !tbaa !3
  %call6 = call noundef i32 @_ZNK8QuantLib8Currency11numericCodeEv(ptr noundef nonnull align 8 dereferenceable(16) %3)
  store i32 %call6, ptr %ref.tmp5, align 4, !tbaa !9
  call void @llvm.lifetime.start.p0(i64 4, ptr %ref.tmp7) #11
  %4 = load ptr, ptr %c2.addr, align 8, !tbaa !3
  %call8 = call noundef i32 @_ZNK8QuantLib8Currency11numericCodeEv(ptr noundef nonnull align 8 dereferenceable(16) %4)
  store i32 %call8, ptr %ref.tmp7, align 4, !tbaa !9
  %call9 = call noundef nonnull align 4 dereferenceable(4) ptr @_ZSt3maxIiERKT_S2_S2_(ptr noundef nonnull align 4 dereferenceable(4) %ref.tmp5, ptr noundef nonnull align 4 dereferenceable(4) %ref.tmp7)
  %5 = load i32, ptr %call9, align 4, !tbaa !9
  %conv10 = sext i32 %5 to i64
  %add = add nsw i64 %mul, %conv10
  call void @llvm.lifetime.end.p0(i64 4, ptr %ref.tmp7) #11
  call void @llvm.lifetime.end.p0(i64 4, ptr %ref.tmp5) #11
  call void @llvm.lifetime.end.p0(i64 4, ptr %ref.tmp2) #11
  call void @llvm.lifetime.end.p0(i64 4, ptr %ref.tmp) #11
  ret i64 %add
}