; Function Attrs: mustprogress uwtable
define noundef range(i64 -2149631131648, 2149631130648) i64 @_ZNK8QuantLib19ExchangeRateManager4hashERKNS_8CurrencyES3_(ptr nocapture nonnull readnone align 8 %this, ptr noundef nonnull align 8 dereferenceable(16) %c1, ptr noundef nonnull align 8 dereferenceable(16) %c2) local_unnamed_addr #3 align 2 {
entry:
  tail call void @_ZNK8QuantLib8Currency13checkNonEmptyEv(ptr noundef nonnull align 8 dereferenceable(16) %c1)
  %0 = load ptr, ptr %c1, align 8, !tbaa !15
  %cmp.not.i.i = icmp eq ptr %0, null
  br i1 %cmp.not.i.i, label %cond.false.i.i, label %_ZNK8QuantLib8Currency11numericCodeEv.exit, !prof !40

cond.false.i.i:                                   ; preds = %entry
  tail call void @_ZN5boost16assertion_failedEPKcS1_S1_l(ptr noundef nonnull @.str.8, ptr noundef nonnull @__PRETTY_FUNCTION__._ZNK5boost10shared_ptrIN8QuantLib8Currency4DataEEptEv, ptr noundef nonnull @.str.9, i64 noundef 784)
  %.pre.i.i = load ptr, ptr %c1, align 8, !tbaa !15
  br label %_ZNK8QuantLib8Currency11numericCodeEv.exit

_ZNK8QuantLib8Currency11numericCodeEv.exit:       ; preds = %entry, %cond.false.i.i
  %1 = phi ptr [ %0, %entry ], [ %.pre.i.i, %cond.false.i.i ]
  %numeric.i = getelementptr inbounds nuw i8, ptr %1, i64 64
  %2 = load i32, ptr %numeric.i, align 8, !tbaa !41
  tail call void @_ZNK8QuantLib8Currency13checkNonEmptyEv(ptr noundef nonnull align 8 dereferenceable(16) %c2)
  %3 = load ptr, ptr %c2, align 8, !tbaa !15
  %cmp.not.i.i3 = icmp eq ptr %3, null
  br i1 %cmp.not.i.i3, label %cond.false.i.i5, label %_ZNK8QuantLib8Currency11numericCodeEv.exit7, !prof !40

cond.false.i.i5:                                  ; preds = %_ZNK8QuantLib8Currency11numericCodeEv.exit
  tail call void @_ZN5boost16assertion_failedEPKcS1_S1_l(ptr noundef nonnull @.str.8, ptr noundef nonnull @__PRETTY_FUNCTION__._ZNK5boost10shared_ptrIN8QuantLib8Currency4DataEEptEv, ptr noundef nonnull @.str.9, i64 noundef 784)
  %.pre.i.i6 = load ptr, ptr %c2, align 8, !tbaa !15
  br label %_ZNK8QuantLib8Currency11numericCodeEv.exit7

_ZNK8QuantLib8Currency11numericCodeEv.exit7:      ; preds = %_ZNK8QuantLib8Currency11numericCodeEv.exit, %cond.false.i.i5
  %4 = phi ptr [ %3, %_ZNK8QuantLib8Currency11numericCodeEv.exit ], [ %.pre.i.i6, %cond.false.i.i5 ]
  %numeric.i4 = getelementptr inbounds nuw i8, ptr %4, i64 64
  %5 = load i32, ptr %numeric.i4, align 8, !tbaa !41
  tail call void @_ZNK8QuantLib8Currency13checkNonEmptyEv(ptr noundef nonnull align 8 dereferenceable(16) %c1)
  %6 = load ptr, ptr %c1, align 8, !tbaa !15
  %cmp.not.i.i8 = icmp eq ptr %6, null
  br i1 %cmp.not.i.i8, label %cond.false.i.i10, label %_ZNK8QuantLib8Currency11numericCodeEv.exit12, !prof !40

cond.false.i.i10:                                 ; preds = %_ZNK8QuantLib8Currency11numericCodeEv.exit7
  tail call void @_ZN5boost16assertion_failedEPKcS1_S1_l(ptr noundef nonnull @.str.8, ptr noundef nonnull @__PRETTY_FUNCTION__._ZNK5boost10shared_ptrIN8QuantLib8Currency4DataEEptEv, ptr noundef nonnull @.str.9, i64 noundef 784)
  %.pre.i.i11 = load ptr, ptr %c1, align 8, !tbaa !15
  br label %_ZNK8QuantLib8Currency11numericCodeEv.exit12

_ZNK8QuantLib8Currency11numericCodeEv.exit12:     ; preds = %_ZNK8QuantLib8Currency11numericCodeEv.exit7, %cond.false.i.i10
  %7 = phi ptr [ %6, %_ZNK8QuantLib8Currency11numericCodeEv.exit7 ], [ %.pre.i.i11, %cond.false.i.i10 ]
  %numeric.i9 = getelementptr inbounds nuw i8, ptr %7, i64 64
  %8 = load i32, ptr %numeric.i9, align 8, !tbaa !41
  tail call void @_ZNK8QuantLib8Currency13checkNonEmptyEv(ptr noundef nonnull align 8 dereferenceable(16) %c2)
  %9 = load ptr, ptr %c2, align 8, !tbaa !15
  %cmp.not.i.i13 = icmp eq ptr %9, null
  br i1 %cmp.not.i.i13, label %cond.false.i.i15, label %_ZNK8QuantLib8Currency11numericCodeEv.exit17, !prof !40

cond.false.i.i15:                                 ; preds = %_ZNK8QuantLib8Currency11numericCodeEv.exit12
  tail call void @_ZN5boost16assertion_failedEPKcS1_S1_l(ptr noundef nonnull @.str.8, ptr noundef nonnull @__PRETTY_FUNCTION__._ZNK5boost10shared_ptrIN8QuantLib8Currency4DataEEptEv, ptr noundef nonnull @.str.9, i64 noundef 784)
  %.pre.i.i16 = load ptr, ptr %c2, align 8, !tbaa !15
  br label %_ZNK8QuantLib8Currency11numericCodeEv.exit17

_ZNK8QuantLib8Currency11numericCodeEv.exit17:     ; preds = %_ZNK8QuantLib8Currency11numericCodeEv.exit12, %cond.false.i.i15
  %10 = phi ptr [ %9, %_ZNK8QuantLib8Currency11numericCodeEv.exit12 ], [ %.pre.i.i16, %cond.false.i.i15 ]
  %.sroa.speculated22 = tail call i32 @llvm.smin.i32(i32 %5, i32 %2)
  %conv = sext i32 %.sroa.speculated22 to i64
  %mul = mul nsw i64 %conv, 1000
  %numeric.i14 = getelementptr inbounds nuw i8, ptr %10, i64 64
  %11 = load i32, ptr %numeric.i14, align 8, !tbaa !41
  %.sroa.speculated = tail call i32 @llvm.smax.i32(i32 %8, i32 %11)
  %conv10 = sext i32 %.sroa.speculated to i64
  %add = add nsw i64 %mul, %conv10
  ret i64 %add
}